(dp0
S'name'
p1
S'bxcd'
p2
sS'seq'
p3
(lp4
(dp5
S'numHit'
p6
I1
sS'numBets'
p7
I0
sS'askTip'
p8
I0
sS'stand'
p9
I1
sS'win'
p10
I1
sS'money'
p11
I100
sS'bet'
p12
I80
sS'mark'
p13
Nsa(dp14
g6
I0
sg7
I1
sg8
I0
sg9
I1
sg10
I1
sg11
I180
sg12
I88
sg13
Nsa(dp15
g6
I1
sg7
I2
sg8
I0
sg9
I1
sg10
I1
sg11
I268
sg12
I80
sg13
Nsa(dp16
g6
I2
sg7
I3
sg8
I0
sg9
I1
sg10
I1
sg11
I348
sg12
I88
sg13
Nsa(dp17
g6
I1
sg7
I4
sg8
I0
sg9
I1
sg10
I1
sg11
I436
sg12
I80
sg13
Nsa(dp18
g6
I2
sg7
I5
sg8
I0
sg9
I1
sg10
I1
sg11
I516
sg12
I88
sg13
Nsa(dp19
g6
I0
sg7
I6
sg8
I0
sg9
I1
sg10
I1
sg11
I604
sg12
I80
sg13
Nsa(dp20
g6
I0
sg7
I7
sg8
I0
sg9
I1
sg10
I0
sg11
I684
sg12
I0
sg13
Nsa(dp21
g6
I0
sg7
I7
sg8
I0
sg9
I1
sg10
I1
sg11
I684
sg12
I88
sg13
Nsa(dp22
g6
I0
sg7
I8
sg8
I0
sg9
I1
sg10
I1
sg11
I772
sg12
I80
sg13
Nsa(dp23
g6
I1
sg7
I9
sg8
I0
sg9
I1
sg10
I1
sg11
I852
sg12
I88
sg13
Nsa(dp24
g6
I1
sg7
I10
sg8
I0
sg9
I1
sg10
I1
sg11
I940
sg12
I80
sg13
Nsa(dp25
g6
I0
sg7
I11
sg8
I0
sg9
I1
sg10
I1
sg11
I1020
sg12
I88
sg13
Nsa(dp26
g6
I0
sg7
I12
sg8
I0
sg9
I1
sg10
I1
sg11
I1108
sg12
I80
sg13
Nsa(dp27
g6
I2
sg7
I13
sg8
I0
sg9
I0
sg10
I-1
sg11
I1188
sg12
I-3
sg13
Nsa(dp28
g6
I2
sg7
I14
sg8
I0
sg9
I0
sg10
I-1
sg11
I1185
sg12
I-3
sg13
Nsa(dp29
g6
I1
sg7
I15
sg8
I0
sg9
I1
sg10
I1
sg11
I1182
sg12
I88
sg13
Nsa(dp30
g6
I1
sg7
I16
sg8
I0
sg9
I0
sg10
I-1
sg11
I1270
sg12
I-21
sg13
(dp31
S'char'
p32
I235
sS'opnum'
p33
I0
sS'type'
p34
I1
sS'len'
p35
I1
sS'op'
p36
S'jmp short 6'
p37
ssa(dp38
g6
I1
sg7
I17
sg8
I0
sg9
I1
sg10
I1
sg11
I1249
sg12
I4
sg13
(dp39
g32
I4
sg33
I0
sg34
I1
sg35
I2
ssa(dp40
g6
I0
sg7
I18
sg8
I0
sg9
I1
sg10
I0
sg11
I1253
sg12
I0
sg13
Nsa(dp41
g6
I2
sg7
I18
sg8
I0
sg9
I0
sg10
I-1
sg11
I1253
sg12
I-117
sg13
(dp42
g32
I139
sg33
I1
sg34
I1
sg35
I3
sg36
S'mov eax, [esp]'
p43
ssa(dp44
g6
I1
sg7
I19
sg8
I0
sg9
I1
sg10
I1
sg11
I1136
sg12
I4
sg13
(dp45
g32
I4
sg33
I1
sg34
I1
sg35
I4
ssa(dp46
g6
I1
sg7
I20
sg8
I0
sg9
I1
sg10
I1
sg11
I1140
sg12
I36
sg13
(dp47
g32
I36
sg33
I1
sg34
I1
sg35
I5
ssa(dp48
g6
I1
sg7
I21
sg8
I0
sg9
I0
sg10
I-1
sg11
I1176
sg12
I-61
sg13
(dp49
g32
I195
sg33
I2
sg34
I1
sg35
I6
sg36
S'ret'
p50
ssa(dp51
g6
I0
sg7
I22
sg8
I0
sg9
I1
sg10
I1
sg11
I1115
sg12
I49
sg13
(dp52
g32
I49
sg33
I0
sg34
I2
sg35
I7
sg36
S'xor eax, eax'
p53
ssa(dp54
g6
I1
sg7
I23
sg8
I0
sg9
I0
sg10
I-1
sg11
I1164
sg12
I-64
sg13
(dp55
g32
I192
sg33
I0
sg34
I2
sg35
I8
ssa(dp56
g6
I0
sg7
I24
sg8
I0
sg9
I1
sg10
I0
sg11
I1100
sg12
I0
sg13
Nsa(dp57
g6
I1
sg7
I24
sg8
I0
sg9
I1
sg10
I1
sg11
I1100
sg12
I80
sg13
(dp58
g32
I80
sg33
I1
sg34
I2
sg35
I9
sg36
S'push eax'
p59
ssa(dp60
g6
I1
sg7
I25
sg8
I0
sg9
I0
sg10
I-1
sg11
I1180
sg12
I-3
sg13
Nsa(dp61
g6
I2
sg7
I26
sg8
I0
sg9
I1
sg10
I1
sg11
I1177
sg12
I80
sg13
Nsa(dp62
g6
I0
sg7
I27
sg8
I0
sg9
I1
sg10
I0
sg11
I1257
sg12
I0
sg13
Nsa(dp63
g6
I1
sg7
I27
sg8
I0
sg9
I0
sg10
I-1
sg11
I1257
sg12
I-3
sg13
Nsa(dp64
g6
I1
sg7
I28
sg8
I0
sg9
I1
sg10
I1
sg11
I1254
sg12
I88
sg13
Nsa(dp65
g6
I0
sg7
I29
sg8
I0
sg9
I1
sg10
I1
sg11
I1342
sg12
I80
sg13
Nsa(dp66
g6
I0
sg7
I30
sg8
I0
sg9
I1
sg10
I1
sg11
I1422
sg12
I88
sg13
Nsa(dp67
g6
I0
sg7
I31
sg8
I0
sg9
I1
sg10
I1
sg11
I1510
sg12
I80
sg13
Nsa(dp68
g6
I1
sg7
I32
sg8
I0
sg9
I1
sg10
I1
sg11
I1590
sg12
I88
sg13
Nsa(dp69
g6
I2
sg7
I33
sg8
I0
sg9
I0
sg10
I-1
sg11
I1678
sg12
I-3
sg13
Nsa(dp70
g6
I1
sg7
I34
sg8
I0
sg9
I1
sg10
I1
sg11
I1675
sg12
I80
sg13
Nsa(dp71
g6
I1
sg7
I35
sg8
I0
sg9
I1
sg10
I1
sg11
I1755
sg12
I88
sg13
Nsa(dp72
g6
I2
sg7
I36
sg8
I0
sg9
I1
sg10
I1
sg11
I1843
sg12
I80
sg13
Nsa(dp73
g6
I1
sg7
I37
sg8
I0
sg9
I0
sg10
I-1
sg11
I1923
sg12
I-3
sg13
Nsa(dp74
g6
I0
sg7
I38
sg8
I0
sg9
I1
sg10
I1
sg11
I1920
sg12
I88
sg13
Nsa(dp75
g6
I1
sg7
I39
sg8
I0
sg9
I0
sg10
I-1
sg11
I2008
sg12
I-3
sg13
Nsa(dp76
g6
I2
sg7
I40
sg8
I0
sg9
I1
sg10
I1
sg11
I2005
sg12
I80
sg13
Nsa(dp77
g6
I2
sg7
I41
sg8
I0
sg9
I0
sg10
I-1
sg11
I2085
sg12
I-3
sg13
Nsa(dp78
g6
I1
sg7
I42
sg8
I0
sg9
I1
sg10
I1
sg11
I2082
sg12
I88
sg13
Nsa(dp79
g6
I2
sg7
I43
sg8
I0
sg9
I0
sg10
I-1
sg11
I2170
sg12
I-3
sg13
Nsa(dp80
g6
I2
sg7
I44
sg8
I0
sg9
I0
sg10
I-1
sg11
I2167
sg12
I-3
sg13
Nsa(dp81
g6
I3
sg7
I45
sg8
I0
sg9
I0
sg10
I-1
sg11
I2164
sg12
I-3
sg13
Nsa(dp82
g6
I1
sg7
I46
sg8
I0
sg9
I1
sg10
I1
sg11
I2161
sg12
I80
sg13
Nsa(dp83
g6
I0
sg7
I47
sg8
I0
sg9
I1
sg10
I1
sg11
I2241
sg12
I88
sg13
Nsa(dp84
g6
I1
sg7
I48
sg8
I0
sg9
I0
sg10
I-1
sg11
I2329
sg12
I-3
sg13
Nsa(dp85
g6
I0
sg7
I49
sg8
I0
sg9
I1
sg10
I1
sg11
I2326
sg12
I80
sg13
Nsa(dp86
g6
I1
sg7
I50
sg8
I0
sg9
I0
sg10
I-1
sg11
I2406
sg12
I-3
sg13
Nsa(dp87
g6
I1
sg7
I51
sg8
I0
sg9
I1
sg10
I1
sg11
I2403
sg12
I88
sg13
Nsa(dp88
g6
I1
sg7
I52
sg8
I0
sg9
I1
sg10
I0
sg11
I2491
sg12
I0
sg13
Nsa(dp89
g6
I2
sg7
I52
sg8
I0
sg9
I0
sg10
I-1
sg11
I2491
sg12
I-3
sg13
Nsa(dp90
g6
I0
sg7
I53
sg8
I0
sg9
I1
sg10
I1
sg11
I2488
sg12
I80
sg13
Nsa(dp91
g6
I5
sg7
I54
sg8
I0
sg9
I1
sg10
I1
sg11
I2568
sg12
I88
sg13
Nsa(dp92
g6
I1
sg7
I55
sg8
I0
sg9
I1
sg10
I1
sg11
I2656
sg12
I80
sg13
Nsa(dp93
g6
I2
sg7
I56
sg8
I0
sg9
I1
sg10
I1
sg11
I2736
sg12
I88
sg13
Nsa(dp94
g6
I1
sg7
I57
sg8
I0
sg9
I0
sg10
I-1
sg11
I2824
sg12
I-3
sg13
Nsa(dp95
g6
I1
sg7
I58
sg8
I0
sg9
I1
sg10
I1
sg11
I2821
sg12
I80
sg13
Nsa(dp96
g6
I1
sg7
I59
sg8
I0
sg9
I1
sg10
I1
sg11
I2901
sg12
I88
sg13
Nsa(dp97
g6
I1
sg7
I60
sg8
I0
sg9
I0
sg10
I-1
sg11
I2989
sg12
I-3
sg13
Nsa(dp98
g6
I2
sg7
I61
sg8
I0
sg9
I1
sg10
I1
sg11
I2986
sg12
I80
sg13
Nsa(dp99
g6
I2
sg7
I62
sg8
I0
sg9
I1
sg10
I1
sg11
I3066
sg12
I88
sg13
Nsa(dp100
g6
I2
sg7
I63
sg8
I0
sg9
I0
sg10
I-1
sg11
I3154
sg12
I-3
sg13
Nsa(dp101
g6
I0
sg7
I64
sg8
I0
sg9
I1
sg10
I1
sg11
I3151
sg12
I80
sg13
Nsa(dp102
g6
I1
sg7
I65
sg8
I0
sg9
I0
sg10
I-1
sg11
I3231
sg12
I-3
sg13
Nsa(dp103
g6
I1
sg7
I66
sg8
I0
sg9
I1
sg10
I1
sg11
I3228
sg12
I88
sg13
Nsa(dp104
g6
I1
sg7
I67
sg8
I0
sg9
I0
sg10
I-1
sg11
I3316
sg12
I-3
sg13
Nsa(dp105
g6
I0
sg7
I68
sg8
I0
sg9
I1
sg10
I1
sg11
I3313
sg12
I80
sg13
Nsa(dp106
g6
I3
sg7
I69
sg8
I0
sg9
I1
sg10
I1
sg11
I3393
sg12
I88
sg13
Nsa(dp107
g6
I4
sg7
I70
sg8
I0
sg9
I1
sg10
I1
sg11
I3481
sg12
I80
sg13
Nsa(dp108
g6
I1
sg7
I71
sg8
I0
sg9
I0
sg10
I-1
sg11
I3561
sg12
I-3
sg13
Nsa(dp109
g6
I0
sg7
I72
sg8
I0
sg9
I1
sg10
I1
sg11
I3558
sg12
I88
sg13
Nsa(dp110
g6
I2
sg7
I73
sg8
I0
sg9
I0
sg10
I-1
sg11
I3646
sg12
I-3
sg13
Nsa(dp111
g6
I1
sg7
I74
sg8
I0
sg9
I0
sg10
I-1
sg11
I3643
sg12
I-3
sg13
Nsa(dp112
g6
I1
sg7
I75
sg8
I0
sg9
I1
sg10
I1
sg11
I3640
sg12
I104
sg13
(dp113
g32
I104
sg33
I2
sg34
I2
sg35
I10
sg36
S'push 068732f2fh'
p114
ssa(dp115
g6
I3
sg7
I76
sg8
I0
sg9
I1
sg10
I1
sg11
I3744
sg12
I47
sg13
(dp116
g32
I47
sg33
I2
sg34
I2
sg35
I11
ssa(dp117
g6
I0
sg7
I77
sg8
I0
sg9
I1
sg10
I1
sg11
I3791
sg12
I47
sg13
(dp118
g32
I47
sg33
I2
sg34
I2
sg35
I12
ssa(dp119
g6
I2
sg7
I78
sg8
I0
sg9
I1
sg10
I1
sg11
I3838
sg12
I115
sg13
(dp120
g32
I115
sg33
I2
sg34
I2
sg35
I13
ssa(dp121
g6
I1
sg7
I79
sg8
I0
sg9
I1
sg10
I1
sg11
I3953
sg12
I104
sg13
(dp122
g32
I104
sg33
I2
sg34
I2
sg35
I14
ssa(dp123
g6
I1
sg7
I80
sg8
I0
sg9
I1
sg10
I1
sg11
I4057
sg12
I104
sg13
(dp124
g32
I104
sg33
I3
sg34
I2
sg35
I15
sg36
S'push 06e69622fh'
p125
ssa(dp126
g6
I1
sg7
I81
sg8
I0
sg9
I1
sg10
I1
sg11
I4161
sg12
I47
sg13
(dp127
g32
I47
sg33
I3
sg34
I2
sg35
I16
ssa(dp128
g6
I3
sg7
I82
sg8
I0
sg9
I1
sg10
I1
sg11
I4208
sg12
I98
sg13
(dp129
g32
I98
sg33
I3
sg34
I2
sg35
I17
ssa(dp130
g6
I0
sg7
I83
sg8
I0
sg9
I1
sg10
I1
sg11
I4306
sg12
I105
sg13
(dp131
g32
I105
sg33
I3
sg34
I2
sg35
I18
ssa(dp132
g6
I1
sg7
I84
sg8
I0
sg9
I1
sg10
I1
sg11
I4411
sg12
I110
sg13
(dp133
g32
I110
sg33
I3
sg34
I2
sg35
I19
ssa(dp134
g6
I2
sg7
I85
sg8
I0
sg9
I0
sg10
I-1
sg11
I4521
sg12
I-119
sg13
(dp135
g32
I137
sg33
I4
sg34
I2
sg35
I20
sg36
S'mov ebx, esp'
p136
ssa(dp137
g6
I1
sg7
I86
sg8
I0
sg9
I0
sg10
I-1
sg11
I4402
sg12
I-29
sg13
(dp138
g32
I227
sg33
I4
sg34
I2
sg35
I21
ssa(dp139
g6
I2
sg7
I87
sg8
I0
sg9
I1
sg10
I1
sg11
I4373
sg12
I80
sg13
(dp140
g32
I80
sg33
I5
sg34
I2
sg35
I22
sg36
g59
ssa(dp141
g6
I1
sg7
I88
sg8
I0
sg9
I0
sg10
I-1
sg11
I4453
sg12
I-119
sg13
(dp142
g32
I137
sg33
I6
sg34
I2
sg35
I23
sg36
S'mov edx, esp'
p143
ssa(dp144
g6
I2
sg7
I89
sg8
I0
sg9
I0
sg10
I-1
sg11
I4334
sg12
I-30
sg13
(dp145
g32
I226
sg33
I6
sg34
I2
sg35
I24
ssa(dp146
g6
I1
sg7
I90
sg8
I0
sg9
I0
sg10
I-1
sg11
I4304
sg12
I-3
sg13
Nsa(dp147
g6
I1
sg7
I91
sg8
I0
sg9
I1
sg10
I1
sg11
I4301
sg12
I83
sg13
(dp148
g32
I83
sg33
I7
sg34
I2
sg35
I25
sg36
S'push ebx'
p149
ssa(dp150
g6
I2
sg7
I92
sg8
I0
sg9
I0
sg10
I-1
sg11
I4384
sg12
I-24
sg13
(dp151
g32
I232
sg33
I0
sg34
I3
sg35
I26
sg36
S'call -74'
p152
ssa(dp153
g6
I2
sg7
I93
sg8
I0
sg9
I0
sg10
I-1
sg11
I4360
sg12
I-79
sg13
(dp154
g32
I177
sg33
I0
sg34
I3
sg35
I27
ssa(dp155
g6
I3
sg7
I94
sg8
I0
sg9
I0
sg10
I-1
sg11
I4281
sg12
I-1
sg13
(dp156
g32
I255
sg33
I0
sg34
I3
sg35
I28
ssa(dp157
g6
I1
sg7
I95
sg8
I0
sg9
I0
sg10
I-1
sg11
I4280
sg12
I-1
sg13
(dp158
g32
I255
sg33
I0
sg34
I3
sg35
I29
ssa(dp159
g6
I3
sg7
I96
sg8
I0
sg9
I0
sg10
I-1
sg11
I4279
sg12
I-1
sg13
(dp160
g32
I255
sg33
I0
sg34
I3
sg35
I30
ssa(dp161
g6
I3
sg7
I97
sg8
I0
sg9
I0
sg10
I-1
sg11
I4278
sg12
I-79
sg13
(dp162
g32
I177
sg33
I1
sg34
I3
sg35
I31
sg36
S'mov cl, -1h'
p163
ssa(dp164
g6
I1
sg7
I98
sg8
I0
sg9
I0
sg10
I-1
sg11
I4199
sg12
I-1
sg13
(dp165
g32
I255
sg33
I1
sg34
I3
sg35
I32
ssa(dp166
g6
I1
sg7
I99
sg8
I0
sg9
I1
sg10
I1
sg11
I4198
sg12
I80
sg13
Nsa(dp167
g6
I1
sg7
I100
sg8
I0
sg9
I0
sg10
I-1
sg11
I4278
sg12
I-3
sg13
Nsa(dp168
g6
I1
sg7
I101
sg8
I0
sg9
I0
sg10
I-1
sg11
I4275
sg12
I-3
sg13
Nsa(dp169
g6
I3
sg7
I102
sg8
I0
sg9
I1
sg10
I1
sg11
I4272
sg12
I88
sg13
Nsa(dp170
g6
I1
sg7
I103
sg8
I0
sg9
I0
sg10
I-1
sg11
I4360
sg12
I-3
sg13
Nsa(dp171
g6
I0
sg7
I104
sg8
I0
sg9
I1
sg10
I1
sg11
I4357
sg12
I40
sg13
(dp172
g32
I40
sg33
I2
sg34
I3
sg35
I33
sg36
S'sub [eax+26], cl'
p173
ssa(dp174
g6
I1
sg7
I105
sg8
I0
sg9
I1
sg10
I1
sg11
I4397
sg12
I72
sg13
(dp175
g32
I72
sg33
I2
sg34
I3
sg35
I34
ssa(dp176
g6
I0
sg7
I106
sg8
I0
sg9
I1
sg10
I1
sg11
I4469
sg12
I26
sg13
(dp177
g32
I26
sg33
I2
sg34
I3
sg35
I35
ssa(dp178
g6
I2
sg7
I107
sg8
I0
sg9
I1
sg10
I1
sg11
I4495
sg12
I49
sg13
(dp179
g32
I49
sg33
I3
sg34
I3
sg35
I36
sg36
S'xor eax, eax'
p180
ssa(dp181
g6
I3
sg7
I108
sg8
I0
sg9
I0
sg10
I-1
sg11
I4544
sg12
I-64
sg13
(dp182
g32
I192
sg33
I3
sg34
I3
sg35
I37
ssa(dp183
g6
I1
sg7
I109
sg8
I0
sg9
I0
sg10
I-1
sg11
I4480
sg12
I-80
sg13
(dp184
g32
I176
sg33
I4
sg34
I3
sg35
I38
sg36
S'mov al, 0bh'
p185
ssa(dp186
g6
I0
sg7
I110
sg8
I0
sg9
I1
sg10
I1
sg11
I4400
sg12
I11
sg13
(dp187
g32
I11
sg33
I4
sg34
I3
sg35
I39
ssa(dp188
g6
I2
sg7
I111
sg8
I0
sg9
I0
sg10
I-1
sg11
I4411
sg12
I-119
sg13
(dp189
g32
I137
sg33
I5
sg34
I3
sg35
I40
sg36
S'mov ecx, esp'
p190
ssa(dp191
g6
I2
sg7
I112
sg8
I0
sg9
I0
sg10
I-1
sg11
I4292
sg12
I-31
sg13
(dp192
g32
I225
sg33
I5
sg34
I3
sg35
I41
ssa(dp193
g6
I0
sg7
I113
sg8
I0
sg9
I1
sg10
I1
sg11
I4261
sg12
I80
sg13
Nsa(dp194
g6
I2
sg7
I114
sg8
I0
sg9
I0
sg10
I-1
sg11
I4341
sg12
I-3
sg13
Nsa(dp195
g6
I0
sg7
I115
sg8
I0
sg9
I1
sg10
I1
sg11
I4338
sg12
I88
sg13
Nsa(dp196
g6
I0
sg7
I116
sg8
I0
sg9
I1
sg10
I1
sg11
I4426
sg12
I80
sg13
Nsa(dp197
g6
I0
sg7
I117
sg8
I0
sg9
I1
sg10
I0
sg11
I4506
sg12
I0
sg13
Nsa(dp198
g6
I3
sg7
I117
sg8
I0
sg9
I0
sg10
I-1
sg11
I4506
sg12
I-3
sg13
Nsa(dp199
g6
I1
sg7
I118
sg8
I0
sg9
I1
sg10
I1
sg11
I4503
sg12
I88
sg13
Nsa(dp200
g6
I1
sg7
I119
sg8
I0
sg9
I1
sg10
I1
sg11
I4591
sg12
I80
sg13
Nsa(dp201
g6
I1
sg7
I120
sg8
I0
sg9
I0
sg10
I-1
sg11
I4671
sg12
I-3
sg13
Nsa(dp202
g6
I1
sg7
I121
sg8
I0
sg9
I1
sg10
I1
sg11
I4668
sg12
I88
sg13
Nsa(dp203
g6
I2
sg7
I122
sg8
I0
sg9
I0
sg10
I-1
sg11
I4756
sg12
I-51
sg13
(dp204
g32
I205
sg33
I6
sg34
I3
sg35
I42
sg36
S'int 7fh'
p205
ssa(dp206
g6
I2
sg7
I123
sg8
I0
sg9
I1
sg10
I1
sg11
I4705
sg12
I127
sg13
(dp207
g32
I127
sg33
I6
sg34
I3
sg35
I43
ssa(dp208
g6
I2
sg7
I124
sg8
I1
sg9
I0
sg10
I-1
sg11
I4832
sg12
I-127
sg13
Nsa(dp209
g6
I2
sg7
I125
sg8
I1
sg9
I0
sg10
I-1
sg11
I4705
sg12
I-127
sg13
Nsa(dp210
g6
I3
sg7
I126
sg8
I1
sg9
I0
sg10
I-1
sg11
I4578
sg12
I-127
sg13
Nsa(dp211
g6
I2
sg7
I127
sg8
I1
sg9
I0
sg10
I-1
sg11
I4451
sg12
I-127
sg13
Nsa(dp212
g6
I3
sg7
I128
sg8
I1
sg9
I0
sg10
I-1
sg11
I4324
sg12
I-127
sg13
Nsa(dp213
g6
I4
sg7
I129
sg8
I1
sg9
I0
sg10
I-1
sg11
I4197
sg12
I-127
sg13
Nsa(dp214
g6
I1
sg7
I130
sg8
I1
sg9
I0
sg10
I-1
sg11
I4070
sg12
I-127
sg13
Nsa(dp215
g6
I2
sg7
I131
sg8
I1
sg9
I0
sg10
I-1
sg11
I3943
sg12
I-127
sg13
Nsa(dp216
g6
I5
sg7
I132
sg8
I1
sg9
I0
sg10
I-1
sg11
I3816
sg12
I-127
sg13
Nsa(dp217
g6
I3
sg7
I133
sg8
I1
sg9
I0
sg10
I-1
sg11
I3689
sg12
I-127
sg13
Nsa(dp218
g6
I2
sg7
I134
sg8
I1
sg9
I0
sg10
I-1
sg11
I3562
sg12
I-127
sg13
Nsa(dp219
g6
I1
sg7
I135
sg8
I1
sg9
I0
sg10
I-1
sg11
I3435
sg12
I-127
sg13
Nsa(dp220
g6
I1
sg7
I136
sg8
I1
sg9
I0
sg10
I-1
sg11
I3308
sg12
I-127
sg13
Nsa(dp221
g6
I1
sg7
I137
sg8
I1
sg9
I0
sg10
I-1
sg11
I3181
sg12
I-127
sg13
Nsa(dp222
g6
I2
sg7
I138
sg8
I1
sg9
I0
sg10
I-1
sg11
I3054
sg12
I-127
sg13
Nsa(dp223
g6
I1
sg7
I139
sg8
I1
sg9
I0
sg10
I-1
sg11
I2927
sg12
I-127
sg13
Nsa(dp224
g6
I1
sg7
I140
sg8
I1
sg9
I0
sg10
I-1
sg11
I2800
sg12
I-127
sg13
Nsa(dp225
g6
I2
sg7
I141
sg8
I1
sg9
I0
sg10
I-1
sg11
I2673
sg12
I-127
sg13
Nsa(dp226
g6
I1
sg7
I142
sg8
I1
sg9
I0
sg10
I-1
sg11
I2546
sg12
I-127
sg13
Nsa(dp227
g6
I1
sg7
I143
sg8
I1
sg9
I0
sg10
I-1
sg11
I2419
sg12
I-127
sg13
Nsa(dp228
g6
I1
sg7
I144
sg8
I1
sg9
I0
sg10
I-1
sg11
I2292
sg12
I-127
sg13
Nsa(dp229
g6
I2
sg7
I145
sg8
I1
sg9
I0
sg10
I-1
sg11
I2165
sg12
I-127
sg13
Nsa(dp230
g6
I2
sg7
I146
sg8
I1
sg9
I0
sg10
I-1
sg11
I2038
sg12
I-127
sg13
Nsa(dp231
g6
I1
sg7
I147
sg8
I1
sg9
I0
sg10
I-1
sg11
I1911
sg12
I-127
sg13
Nsa(dp232
g6
I2
sg7
I148
sg8
I1
sg9
I0
sg10
I-1
sg11
I1784
sg12
I-127
sg13
Nsa(dp233
g6
I2
sg7
I149
sg8
I1
sg9
I0
sg10
I-1
sg11
I1657
sg12
I-127
sg13
Nsa(dp234
g6
I1
sg7
I150
sg8
I1
sg9
I0
sg10
I-1
sg11
I1530
sg12
I-127
sg13
Nsa(dp235
g6
I4
sg7
I151
sg8
I0
sg9
I0
sg10
I-1
sg11
I1403
sg12
I-66
sg13
Nsas.