(lp0
(lp1
S'I  oe"o tst .thhtsf hoir oFepsaorore if r  cg y cyhhboyhoatauoaul srul lfi rldeoce eonr fenngwcffg\'earofet.ryro!  dptr.hI tstatio sv f.i,es  s  hyT yaooh"o uuenupl  o rdhmtwo aa ibbvgnlleeiole  ct mfd  g aopwewinhrtirero tl anahylsgn'
p2
aS'notveryhard'
p3
aa(lp4
S'I  oeht tst e hhtsfraoir oenpsaor"oe if .t cg y hyhhboFeoatauorul srr  lfi  cdeoceyhonr foangwcful\'earorlt.ryr e  dptenhI tsfgatio fev f.io!es  sr. hyT taooh"s uuem,pl  o rdhmryo aaeobbvg uleeia e  cnwmfd si aopwlwinhelirerr tl asghyls e'
p5
aS'easypeesy'
p6
aa(lp7
S'I  ype   wbotfFahieuofonot  .orophfh r te aaTtyh tivhsoeyhree uroil  ir usydms c   oa ehdcsng"faohteimflnar cool\'lal rretliopetn egth sghnhsra,eagt an !ve ossy.e.ffewo  o  euaIrbfr  twaoswp asr irsri hlohdcyelbo  or luicuegelfrr"emd y .t'
p8
aS'easypeesy'
p9
aa(lp10
S'I  ype t wbotfyhhieuofoeot  .ourphfh rr e aaTt c tivhsehyhree faoil  iflusydmsol   oa redcsng"tnohteinsgnar co,e\'lal t !tliop y. egthnohnhsrouagt at ve os we.ffewi  o  rlaIrbfol twaon p asrggrsri "eohdcy.tbo  o  luicuFaelfrronmd y ro'
p11
aS'answerhere'
p12
aa(lp13
S'I cbreoohefn ahew .rirooh a al  s rtoplfroTy gthprladthoioseeoei seuse,r bnri  r s  ylglfom w"ycoeey faeh.ohum. y gfe ua   sobifrF ldwItuacoeowloitr s r rient ahiptt ln\'hsiachshylgt hgv r eo e tohecai ug!hhut rssare.ail dye n tvsdfop "se e  ontftwfa'
p14
aS'supersimple'
p15
aa(lp16
S'I fys  cop whhrt"ioawoelpla.alelr s  edTigyn heeogiestuef t  . m ad yaanoIognontuist\'  cwhtsh ee haprrhovh" auer.cvl a heddsFa  oeolabn rl eef ep  oynrflrogoao uebityr!lrso .el uemyorf  f fws eoitbfrtrafthasos iir,tgct hh syitc os riu'
p17
aS'hopeyouautomate'
p18
aa(lp19
S'I fysy cop ohhrt"uoawom pla.owelr ri edTelyn h logiea uef ng . msed yawtoIoge ntuira\'  csntsh  o haphthovhehauerrevl aeredds"   oe.cabn  h eefFap  oolrflrrloao  ebityynlrsoogel uuemyorr!  f  .ws eeitbfftraffhasoo iirrtgctthh ssitc ,s ri '
p20
aS'easyasabc'
p21
aa(lp22
S'I fysy cop ohhrt"uoawom pla.owelr ri edTelyn h logiea uef ng . msed yawtoIoge ntuira\'  csntsh  o haphthovhehauerrevl aeredds"   oe.cabn  h eefFap  oolrflrrloao  ebityynlrsoogel uuemyorr!  f  .ws eeitbfftraffhasoo iirrtgctthh ssitc ,s ri '
p23
aS'easyasabc'
p24
aa(lp25
S'I nf  Iefwht oio lrlpsotlehts  os gyu ieolostudf     "adbbmnoeaoon srt\'fiehtac e i arhrcn alrscvyywhe pea strlatosl r. epa hnriTegoghrebhee!lt ".e m.mfa  ogFwrioiwcrta  hrpy dhot ruhiarifs s ee y fcoffhuooa rrlh tlaysevo,neu g ryed o.oeu'
p26
aS'easypeesy'
p27
aa(lp28
S'I oapm cntlf gri do  o  eyf o " es gocn ynvr thg dashwfhotbc.mp ofitw.yf,wethgho\'eowhaes itta ansar ahfuos r of ithaeout biil.hbrr ryve syTgrorr noFuoyl el!p  altsl oelafdoe oiphiar t"onorrolarl.edh eh eIu yio u lfctecs esntgr tu n e'
p29
aS'easypeesy'
p30
aa(lp31
S'I oapm cntlf gri do  o  eyf osh of ithae ynvr thg dashwfhotbc.mp ofirweFuoyl el!ho\'eowhaes itta ansar ahfuoseerorrolarl.out biil.hbrr ryve syTgrorr  rer tu n ep  altsl oelafdoe oiphiar t"as" es gocnedh eh eIu yio u lfctecs esmn .yf,wethg'
p32
aS'answerhere'
p33
aa(lp34
S'I oapm cntlf gri do  o  eyf osh of ithae ynvr thg dashwfhotbc.mp ofirweFuoyl el!ho\'eowhaes itta ansar ahfuoseerorrolarl.out biil.hbrr ryve syTgrorr  rer tu n ep  altsl oelafdoe oiphiar t"as" es gocnedh eh eIu yio u lfctecs esmn .yf,wethg'
p35
aS'hopeyouautomate'
p36
aa(lp37
S'I s e s "rhhoe oofacpu shelbia daely sslobiteuec n   agdfcneoars!niyw.\'rpetltr yo"h ..as  vtTFerho aerai   gmyphaortguo irbfc lo eerpfmwhf arowraridstt eshi , ff t oyhyroio usuy   owchuiharlav llee l fgedfenootgnr eeta. sn l oIoitttsh'
p38
aS'easypeesy'
p39
aa(lp40
S'I wnet o eto oh hig  hfT sryuehateffa hf  o rovh.aovbeoituw pe  irea rshrice tIrw sm  e lh ahtladiay" elay i yrocgowwf lopss dn iuiifglur hs eccrnnoee ocoti r  n"rtndbhurflypei.t golala ophfn saeneldiyttrfgF,n!\'ml gosoao o o.t ebhu .srfryt'
p41
aS'easyasabc'
p42
aa(lp43
S'I\'lcslraooh hh"flc tehhywvf.reie.o hh mao ae  afs  rgaoh lusr bTsf aFtelpawlltddaheoinostleviedr ose rssr, e etn aini ft w  any hgbifecmosweyyngoa eeg   ar hroooeu t. hylcg ie uut! ph ftooriysrgr h.driIa utyco eo weoostif sp u" eeirnb  roh tprttsfl '
p44
aS'answerhere'
p45
aa(lp46
S'I\'lcslraooh i e we tehhywvf.rerureirh mao ae  afepsfl oh lusr bTsfd "flcpawlltddaheo b.o heviedr ose roo rga etn aini ftfgFtely hgbifecmos uostloa eeg   ar msr, eu t. hylcg ia   an ph ftooriyskayyngdriIa utyco inoooeoostif sp u"nsuut!nb  roh tprtgwr h.'
p47
aS'hopeyouautomate'
p48
aa(lp49
S'I\'lcslraooh i r h. tehhywvf.renw weh mao ae  afnieiroh lusr bTsfinfl pawlltddaheon"flceviedr ose rg.o h etn aini ft  rgay hgbifecmosfFteloa eeg   ar oostlu t. hylcg irr, e ph ftooriys   andriIa utyco tyyngoostif sp u"hoooenb  roh tprweuut!'
p50
aS'easypeesy'
p51
aa(lp52
S'I\'lcslraooh oreir tehhywvf.rerefl h mao ae  afe"flcoh lusr bTsf .o hpawlltddaheoa rgaeviedr ose rnFtel etn aini ftsostly hgbifecmoswr, eoa eeg   ar e  anu t. hylcg iryyng ph ftooriyssoooedriIa utyco  uut!oostif sp u"hr h.nb  roh tprme we'
p53
aS'supersimple'
p54
aa(lp55
S'I.drr  o  hIneyotefop  fueslor hor yotteoussful  f doiod fsrob  tneb"s\' at,tfsi  airyhiceoar duvlc  eyrow  yfiasp l ttmlproa ra.kgoi iebgTntlhhg ete am  un fmpowoa tirgbhtwioehacgr r u tdpsch h hiiraasfanl  sslcyeweho enaufrgl oselhr"!ea ..nvy geoFe uo'
p56
aS'easypeesy'
p57
aa(lp58
S'Ia t iooe hegn vt sft. iefeghehst s fs fteo ihry To wo !pasoaoohr"ira.e  uiufe wntn pclg   yi"soyrhdhhbmon.,tooa taaaun  hublb vsgriFye llefeii noordee o ccegru omnfrd  f   cn gawocpffywh\'weianrhoooiati.rreyrrrull t ld pat rllhhIy ltsst  e'
p59
aS'notveryhard'
p60
aa(lp61
S'Iaafds  msyh  la  mea"oahpliioafk.ulorerffgfi  lponl  ionFweebgyybcrgoin le oa t rlgye.suspsu leom t ih py !u Irhcri og. wtaa asbuedi ivcs ortotsgere"g  nhhh y tuea\' otdpfisfnttu otor fo hlfnoreaothidoe. dnrhas r  y stev bwlToowsreceaohufe,  h rter r c'
p62
aS'easypeesy'
p63
aa(lp64
S'Ibt og on l ftiiuohesoscsrtomhr    hp owop"eeewuafhefr ilr raf ytddbasocoh  asirhu biseeta tefi ssldh  cft,loify o  ensaocrayn\' iur nogtcr yysue hlhpow !hayatuew.al vorrivlse. "leet  e.l nrdTf  agaohfFg eineooep.ge rrtr h mt  oItlasya'
p65
aS'answerhere'
p66
aa(lp67
S'Ibt og rt l ftii  hesoscsyaomhr   onp owop"uoewuafhmrt ilr ro hytddbareeoh  asefru bise f  tefi aocdh  cfnrhoify ostansaocrwsl\' iur e,ltcr yyr e hlhposynhayatu ogal vorhuevlse. e !eet  erw. nrdTfeiagaohf"l eineo.lp.ge r  r h mtFgoItlasoe'
p68
aS'easypeesy'
p69
aa(lp70
S'Ibt og uo l ftiirthesoscs homhr   eep owop"frewuafhnf  ilr roocytddbatrhoh  as tau bisensl tefi o,ldh  cft eoify o ynnsaocrwog\' iur ruetcr yyo ! hlhponw.hayatugial vor"lvlse. .leet  e   nrdTfFgagaohfoe eineortp.ge r  r h mtyaoItlason'
p71
aS'supersimple'
p72
aa(lp73
S'Icroa  hw.sghaa ieolrTetpldhs ee eta ni  nygfmaooe antu.ygsh  oiwedIucerot  r n hp"c\'sah.hthvr a oeaFlhu solalderevdo  ne nfyg beooeae ru!  l r.pfoy ratoeoisufbr rfllo oeyferm  ft sbfswtao,irsr taityhicso g  uthci htrswi y isfp"l otel'
p74
aS'supersimple'
p75
aa(lp76
S'Icrohf hw.iohaa srolrT tpldhisee es, ni   ygfmwyoe ahou.ygeu  oir dIucewot   in hptl\'sahhlthvre  oea ghu saealdentvdo s e nfwa beoenae rro  l  tpfoyghratooeoisuerbr rs llo "ceyfe.hm  f a sbfFlwtaoolirsrretait nhicsyg g  oethciu!htrsr.i y  sfp"e ottf'
p77
aS'hopeyouautomate'
p78
aa(lp79
S'Idaia fidvsc s  mosryth o tlsag e rmee"ag" o ahnphlhihi oya ftku.eualo\'r eortfdfpgffiis f nlptotnul  o tioorn Ffwoee bhglyfynbocrregaooitn hlied ooea.  td nrrlhgyaes. sru s pys us tleeovm  btw liTho opwys r!ue cIerahochruif eo,g .  wht arat ears bru ec'
p80
aS'answerhere'
p81
aa(lp82
S'Idaia fidvsc s  n tlee o tlsag e rmee"sys r!hnphlhihi oya fewo,g .o\'r eortfdfpgffaeu ecptotnul  o tioosrrythe bhglyfynbocrri" o a hlied ooea.  te.eualyaes. sru s pyss f nlovm  btw liTho tFfwoeue cIerahochrui ooitn  wht arat earsarrlhg'
p83
aS'notveryhard'
p84
aa(lp85
S'Idaia fidvsc s  o.eual o tlsag e rmee"r f nlhnphlhihi oya fw Ffwoeo\'r eortfdfpgffitooitnptotnul  o tioonhrrlhge bhglyfynbocrrne tlee hlied ooea.  ti ys r!yaes. sru s pysnwo,g .ovm  btw liTho giu ecue cIerahochrui nryth  wht arat earsf" o a'
p86
aS'notveryhard'
p87
aa(lp88
S'Idrul  yplhbp eoetbnp oogef.ge a u!yiTs.orh ulea y nd msosawntge\'rirtacs i "hgp.ahh vtrFe ao fsraoe  r ypwforaouorrrbd  l yeeiofmfuf  rowy rioettufsh f, ho taryhvtoiesus    diwcosihn lae"ll t lligeorentetgsd e  a.oon ffoI  ttbmh aaesskrhii ocncu ghlc a'
p89
aS'hopeyouautomate'
p90
aa(lp91
S'Idrul  yplhbp eoetbnp oogef.ge a u!yiTs.orh ulea y nd msosawntge\'rirtacs i "hgp.ahh vtrFe ao fsraoe  r ypwforaouorrrbd  l yeeiofmfuf  rowy rioettufsh f, ho taryhvtoiesus    diwcosihn lae"ll t lligeorentetgsd e  a.oon ffoI  ttbmh aaesskrhii ocncu ghlc a'
p92
aS'hopeyouautomate'
p93
aa(lp94
S'Ie termhsle l lrtwiueesb thgh yet e n sw.  ryieo l!  d  o   l.sdfya af    acoeirfofs"dmgb e yetolttce.hyohabwtce h a ifr hdlosr. caouf t a oarFofsul hhnoona lihhnIobisgodyaoofiy m srroiiokugnsouf,  aeagpu\'vpetiagtuerthr ovnt cpTape  rsrfipus"rro wgnrle'
p95
aS'notveryhard'
p96
aa(lp97
S'Ie termhsle l lrtwiueesb thgh yet ewh.  ryieo l!  d  o   l.sdfya af    acoeirfofs" ee yetolttce.hyohabwtce h a ifr hdlosr. caouf marrFofsul hhnoona lihhnIobisgodyaoofiy m srroionseouf,  aeagpu\'vpetiagtuerthr ovnt cpTape  rsrs "rro wgnrle'
p98
aS'hopeyouautomate'
p99
aa(lp100
S'Ieeyr . oth dusoIor,ptn  e eey s foyhlfuoooo uutrw lstidd slo o lnbfi \'e sgt b e fa"thasm aiioavrcrnel eo yc ta rah syneptpsrrrtw oaoecbi.rhlg saehT lmthhl  eeewf rniomegtra"ehwg.! ai .trcFhd oi prsih  fryc aohysuaoerlu  l feehofnarfgv o'
p101
aS'supersimple'
p102
aa(lp103
S'Ieor g nuaFehg so!oeher.p.a  e vfy Ieooyt ruo d rusoy  hnoedoeufou rfnll o\'doert tft bsfshe o,a or vfftyea so ib uarai  lsswpyi ir c"los wlbtci lrrngeaynemipit gtn whogait. nt  fohfTot ohrhtre ehw triamh sraec dg hc iwahicilaf nll p"elyh.n'
p104
aS'notveryhard'
p105
aa(lp106
S'Ieora  o! mudsfau.h l ion owdicrswpi f  wietb cyel heyrorly  oyu" otfupr.guha t  e iihoeFtdsra.fo o lv francyeTo n\'h  hryotasdetot lto suhhlrnm reaeaeai rvni gse eggli fc ehoc"fha.tt eoa   sparlpIf hstlrtooriseo rfae,nbsw ss glhabetye'
p107
aS'notveryhard'
p108
aa(lp109
S'Ieora  o! mudsfau.h l ion owdicrswpi f  wietb cyel heyrorly  oyu" otfupr.guha t  e iihoeFtdsra.fo o lv francyeTo n\'h  hryotasdetot lto suhhlrnm reaeaeai rvni gse eggli fc ehoc"fha.tt eoa   sparlpIf hstlrtooriseo rfae,nbsw ss glhabetye'
p110
aS'supersimple'
p111
aa(lp112
S'Ieora s,n mudsfw gh l ioeyeowdicrro!pi f  su.etb cy   heyrohwy  oyueiotfuprrluha t el iihoe" dsra.f.go lv f encyeToFt\'h  hro tasdetra lto s nhlrnm yoaeaeaiotvni gsuheggli re ehoc" ra.tt me    spofcpIf hrfhrtooreoao rfa rlbsw satllhabense'
p113
aS'answerhere'
p114
aa(lp115
S'Ieora s,n mudsfw gh l ioeyeowdicrro!pi f  su.etb cy   heyrohwy  oyueiotfuprrluha t el iihoe" dsra.f.go lv f encyeToFt\'h  hro tasdetra lto s nhlrnm yoaeaeaiotvni gsuheggli re ehoc" ra.tt me    spofcpIf hrfhrtooreoao rfa rlbsw satllhabense'
p116
aS'easypeesy'
p117
aa(lp118
S'Ieoro nuauhg sroehe p.a ee vff Ieofyt roo d rusoyt hnosdoeu,ou r nll y\'doeot tfu bsf he owa orivfftlea sl ib  araig lssepyi tr c" os nabtconlrrtoeay tmipnh gtoewhotrit.  t  wchfTrh ohoatrenlhw gliam"esra.n dg gc iFehico!af r.l p lyhy'
p119
aS'supersimple'
p120
aa(lp121
S'Ieslte ht" r   d  crs.y hac fdra  oco hbooysiFuhppaernpeso aerl wet  rwl olfa of" ilybearl.onyleolnido roolnuegr tT tu g melishy rged .yf eon e!ow   o uoet.niIsyfmrtf \'ttto a  fath rubgewon  sa aifrrohthihscfottahogai onshviuhvcprg,e'
p122
aS'easypeesy'
p123
aa(lp124
S'Ieslte hthfa   d  crseonhac fdra  roo hbooysiwttppaernpesisherl wet  n,e olfa of"" rybearl.ow.y olnido ri ocuegr tT nFuh melishyno ad .yf eoirwlow   o un ilniIsyfmrgyle\'ttto a  olnth rubgefu g  sa aiforgehthihscfr e!ahogai o et.viuhvcprtf '
p125
aS'supersimple'
p126
aa(lp127
S'Igaor evrth.e so  y,pIdo etouy  nroyse uoh e uolfw uofidltolodsrln  t \'bosgtef e   ithfbs aaa avis"nerino lcotay th  c epsrnrrtyo orptcbat hliowaeg.rlmh ol tTnew hgnife"gto .ehrm ! waF.tagohriridc s  y ipocfhuh rraya loseluefe  fnhfo'
p128
aS'notveryhard'
p129
aa(lp130
S'Ih nn oboghuateols !pdiw.e cr b oyecno rgufy" ap.dit oroFnl.o\'y rt T  shyhteoar uvamreia  ggeahif tcfp  orfproohtbrrslwa,eas mrey d ow fuiio tfrwh  i yyltoolhuu i rgsh e aetcvf hefaa onldrolottenshne eg irels .o c t"hIsnat ol otlsf e'
p131
aS'hopeyouautomate'
p132
aa(lp133
S'Iha u a iibrylhsga olo hseuepctifrneh cf g af oeeylocrf!olrrtf.uewyso nap rdgrtitoedossn. . ,\' i " tIfTmy t hooh yeruaso e vhum weo aai uhgnlalaisl dvcw p e egrb preoedhstb or  lfnahaeaesenmi ero rl etwlof"hiyto.et sr rhs  F  toyoctrforh'
p134
aS'easypeesy'
p135
aa(lp136
S'Iha urn iibr ghsga eeo hsef!pctiff.eh cfo af orylocrtolrrtsuewys, nap  dgrtiyoedoson. . u\' i " tIfTnw t hoih yetlaso  lvhumn eo aog uhgtealai t dvcw p e rarb ponoedhnob orgtlfna"heaes.emi e r rl F wlofociytorht sr ahs  yl toyoltrfoue'
p137
aS'hopeyouautomate'
p138
aa(lp139
S'IhaT r arhothldefsol   ,peimm enfaay g gkoyeyiiuo.ocn u u gw I p idthhulo arplnsva  \'hesbgto eoe ud gthlofu adnosav er neb  ao elynta oosh ftuwepasrerri  r oroescblff"hly f.ae bo lmsarFl tstoewrisrniac  gti iyehgcso! hr u.tty"rh pt iftiesoorf r.efcw do'
p140
aS'answerhere'
p141
aa(lp142
S'Ihlehf   y rowht lariohsos lpittetlesrs h   a fegycioo eohgfrwtuah  i  ltbynadl ao"noefsu.onnoir t\'grc Fhtew eoe .acfrrh rrf  aIdyoycvt prohe ittua sfosrlah .  l oy ieepuoTsfnrluh fgod e"oeb h wr!lbamit.eevansm egn, f ii wadcnyiio gotrnp u'
p143
aS'notveryhard'
p144
aa(lp145
S'Ihlehwfg  y rhoeht laer!ohsosrt.pitteesesrs  ,  a ft ycioohyohgfreouah   u ltbya dl aonwoefsusinnoirwl\'grc eltew er  .acf gh rrfgeaIdyootvt pre e ittsa sfos"nah . .o oy i tpuoTsFhrluh oeod e"rrb h t  lbamhyceevaiohm egsua f i rlwadci liio seetrnp fn'
p146
aS'notveryhard'
p147
aa(lp148
S'Ihlehwg  y rreht laotohsosn pittegaesrs "n  a f.oycioo tohgfrFhuah  oe ltbyrrdl ao  oefsuycnnoiroh\'grc uatew erl .acf lh rrfeeaIdyofnvt prfge ittoe sfosr!ah . t. oy ispuoTs,rluh  od e"yb h nolbamoueevat m eg w f iniwadcoliio tltrnp  '
p149
aS'easyasabc'
p150
aa(lp151
S'Ihlehwg  y rreht laotohsosn pittegaesrs "n  a f.oycioo tohgfrFhuah  oe ltbyrrdl ao  oefsuycnnoiroh\'grc uatew erl .acf lh rrfeeaIdyofnvt prfge ittoe sfosr!ah . t. oy ispuoTs,rluh  od e"yb h nolbamoueevat m eg w f iniwadcoliio tltrnp  '
p152
aS'notveryhard'
p153
aa(lp154
S'Ihp o o\' aeapolmwt hscalne tsol efil tagtfradi o aedn oso ai rpo h ai haefryu fot s"o o rn" o orefrs o ilgtaohrcalne. oeyudnthv  rbe ihti hleg.I hudb arysrih owr fyuhv oelt fbsccyt.Temgcprs o orefrsi ntntwog.Fryu fot,yuwl e nte hleg!'
p155
aS'easyasabc'
p156
aa(lp157
S'Ihp o o\' aeapolmwt hscalne tsol efil tagtfradi o aedn oso ai rpo h ai haefryu fot s"oeaseshr" o orefrs o ilgtaohrcalne. oeyudnthv  rbe ihti hleg.I hudb arysrih owr fyuhv oelt fbsccyt.Temgcprs o orefrsi mr nwr ee.Fryu fot,yuwl e nte hleg!'
p158
aS'easyasabc'
p159
aa(lp160
S'Ihp o o\' aeapolmwt hscalne tsol efil tagtfradi o aedn oso ai rpo h ai haefryu fot s"oeaseshr" o orefrs o ilgtaohrcalne. oeyudnthv  rbe ihti hleg.I hudb arysrih owr fyuhv oelt fbsccyt.Temgcprs o orefrsi mr nwr ee.Fryu fot,yuwl e nte hleg!'
p161
aS'notveryhard'
p162
aa(lp163
S'Iht.iwdcireF t ah rao c  oyhhv Ilrnc earoeoettyderpfn urp h    yhfsy  eaissilprowowc  shtfotareuihyp or tostrrlaorcuays.ess lluohlio     e l badguoTfihfgedll h fhosefenoelbth er rotgnmee ab  "er e\' n fvamym"ta!twgfoesaoo.sn. iear igur ,o'
p164
aS'notveryhard'
p165
aa(lp166
S'Iht.iwdciri ur ah rao c ey  hv Ilrnc esowcoettyderpftuihp h    yhf rlaeaissilproa ll  shtfotarne lyp or tostsfgeorcuays.eswfenuohlio    eotg badguoTfirr edll h fhos"ta!oelbth er .sn.nmee ab  " ,o\' n fvamyeF ttwgfoesaoaoyh iear igusroe'
p167
aS'easyasabc'
p168
aa(lp169
S'Iht.iwdcirn.sn. ah rao c i ,ohv Ilrnc enF toettyderpfgoyhp h    yhf roeeaissilprof ur  shtfotaroy  yp or tostrowcorcuays.es uihuohlio    trla badguoTfih lldll h fhosee loelbth er  fgenmee ab  "wfen\' n fvamywiotgtwgfoesaoinr e iear igun"ta!'
p170
aS'notveryhard'
p171
aa(lp172
S'Iigsf e shife!h tcof.oc  rfphfctoeaorsr lry tylwpisoeats,unro   gd."yde  moo.iToun fhr \'I eewtty  i  omalhsuanlah gs vohiwgeuacee lv rtadeps    h apbdrhnreoaeoo nsrtbfeeehla  "eeilf.rmroo   ltrFcwys ohi  yratsoo lhtfuyl r roetab unhiaerg'
p173
aS'easyasabc'
p174
aa(lp175
S'Iigsfsh shif"eh tco.roc  r  phfctFceaorsoh lry raylwpi loeatsylunro oe gd."unde  trgo.iTh en fhie!\'I esf.tty  f  omiohsuasrah g tvohiwseuach, lv e adepry   heopbdr ureoat o nshwbfeeeila   leilfalmroon  ltrsgwys wei  yettsoor htfu a r rgntab oohiaeet'
p176
aS'easyasabc'
p177
aa(lp178
S'Il   a eypanhnohnoogurstpe awhe.hsee  aerryIv   otefgcu  ooh sdreadho sloony"lnueo.e\'l u ntdlrFg  o oehbter!aesf .v  fyefooo afruai tr rbs pla erysifo isfbsc olt "rercttmarhs iyi,wgps iht yttoioh .su f   toTwwhrhhiiweelsa rl rme cda gh gteaiihtlfce '
p179
aS'easyasabc'
p180
aa(lp181
S'Ilighe lfierhe c  ony wcpgopiheeuhna . r"ly ha.loIas eutveFn  e ogds freohdo !noory.\'un otleyu d orh lu aborevet fe sef f foaaofr ifotpr rsrlbt,oyas b s ylsiioetcsumr    ac"wwirwiigyilthpnlhttn   oigtf.neho gtirT  swhfa aeoncr rohdm ta ath'
p182
aS'easypeesy'
p183
aa(lp184
S'Iligra lfi"lhe c.lony  epgopFneeuhog . rrey ha !oIasy.utveo  e uds frohdo noore\'un ftleyf d ooh lurabortvet se se, f f aaofy ifoopr rurlbt oyaswb s ilsiiletcslmr    ac"gwireeigyatthps httia  oentf.soho ttirT hswhae aenrcr s hdmwca aeh'
p185
aS'easypeesy'
p186
aa(lp187
S'In ega gh olheafelo.vosep er"neI  .g tdy ey ooF!osnuo.uherr o   duleyolofondtfu\' sortb r  eoteh fsfaf  fvabioeiasr rs tali"s yct,p  h rsciyotrsobry ulapi eitswmgo i h.wlwt hli Te tfhrghoeee r  ttwmt haahairgensdi o  catci nhhfpsea hwrlyre loarceus h'
p188
aS'easyasabc'
p189
aa(lp190
S'In eo gh uheafro.vo p ereeI  f tdyfy oooosnuruhert o  sdule,olof ndtfy\' sootb ru eot h fswaf  ivabileiasl rs  ali"g ycmep  otrscr otreabry nlapaoeitntmgosh h.wewt eri Tr tfhschoe h r hatwmelhaarlirgeesdi"n  c.gci  ehfpF!a ho.lyrrloa eusy'
p191
aS'easypeesy'
p192
aa(lp193
S'Inoi  gfnshsfn uonn \'bsIfh eieefnwruoghtl taty c  oii  teo ec i ol mfrnnewh!phmhsrfuocaotg"fie.ea ahlo trgrs .flr vwloyrhsyi  f ol yeilu wa pcyioFr co telsavot osrotghuahndtrefopu  rsea   g rd  .hr"t ,tldpteba db r why  lorh.eiioaTaeieoyae'
p194
aS'easyasabc'
p195
aa(lp196
S'Inoi  gfnshsfrr  te \'bsIfh eieefeeewh!htl taty c  o "fie.o ec i ol mfra.flrphmhsrfuocaotn ol ea ahlo trgrssFr c vwloyrhsyi  wotghyeilu wa pcyierseao telsavot osr ,tluahndtrefopu sy  l   g rd  .hr" oyaedpteba db r mhuonnorh.eiioaTaeoeruog'
p197
aS'easyasabc'
p198
aa(lp199
S'Inoi  gfnshsfrr  te \'bsIfh eieefeeewh!htl taty c  o "fie.o ec i ol mfra.flrphmhsrfuocaotn ol ea ahlo trgrssFr c vwloyrhsyi  wotghyeilu wa pcyierseao telsavot osr ,tluahndtrefopu sy  l   g rd  .hr" oyaedpteba db r mhuonnorh.eiioaTaeoeruog'
p200
aS'hopeyouautomate'
p201
aa(lp202
S'Inoi  gfnshsfs.flr \'bsIfh eieefi ol htl taty c  oeFr co ec i ol mfrsotghphmhsrfuocaottrseaea ahlo trgrs  ,tl vwloyrhsyi  ay  lyeilu wa pcyinoyaeo telsavot ossuonnuahndtrefopu wruog   g rd  .hr"e  tedpteba db r erewh!orh.eiioaTaea"fie.'
p203
aS'answerhere'
p204
aa(lp205
S'Io gnhfheh bIheefefehltt  o froe  lmrao pmsfoatnrce hotgssth worsi wsayiuw cie,lotlao sr luhdrfp  ye   d h"gondtb brtougoheiaahe eni fssisw!\'sf ies"i.t ayc  .l cio fi lhhrucosF aal rr ogvlyhy wreel apyh t esvtoey anteouroa gr .reunpead   ror.ioTet t'
p206
aS'easypeesy'
p207
aa(lp208
S'Ioa ! usa.hlinodcsp  webce erry y"ofp.uat  ioFdr.ool rnyT \' hytseo t uhrmraaa vigeegif hcfat o  prpfhtrorsora,bws laeyer omdfu  o wirwif it ylhyol ou turgh  eihetsaf  vfaceonh roadttloshln eeeirn s gl ceo"h.tea salI sltoie fens sghbte'
p209
aS'easyasabc'
p210
aa(lp211
S'Ioa ! usa.hlinodcsp  webce erry y"ofp.uat  ioFdr.ool rnyT \' hytseo t uhrmraaa vigeegif hcfat o  prpfhtrorsora,bws laeyer omdfu  o wirwif it ylhyol ou turgh  eihetsaf  vfaceonh roadttloshln eeeirn s gl ceo"h.tea salI sltoie fens sghbte'
p212
aS'supersimple'
p213
aa(lp214
S'Ioa . uswhlirodcop  nebcg er"y y.ofp uatF ioodr.rol  nyTy\' hotseu t rhrm aaaevigfegif hcoat r  ptpfhsror,ora bwsylaeoer umdf   owwiriif lt ylhyo  ougtureh  tihe safa vfnceooh rtadthloseln reei n scgl heo"a.tnl solI teto n fngs oehbt!'
p215
aS'easypeesy'
p216
aa(lp217
S'Ioa o uswthlihhodceep  rrebce  er cy ythofphauatel io ldr.aeol nnnyTsg\' hwetsee! t r.hrm aaagvigoegie hcsat "  p.pfh rorForaobwsrlae er ymdfo  ouwirrif  t yehyof oufturoh  rihetsafs vf,ceo h ryadtolosuln  eeiwn sigl leo"l.tt  shgI ietost f  s iahbsn'
p218
aS'hopeyouautomate'
p219
aa(lp220
S'Ioasn uswghlieeodcr!p  s.ebc  erhy yeofpruate io"dr..ol  nyTF\' hotser t  hrmyaaaoviguegir hc at e  pfpfhfroroorarbwstlaeser ,mdf   oywiroif ut y hyow ouiturlh  lihe safg vfeceoth r adtalosnln oeeitn shgl eeo"r.tm  socI rhtoea f ls alhbne'
p221
aS'easypeesy'
p222
aa(lp223
S'Ipn   ea n rgshc seohoetarfiftob.rvyoefhpl aeprsoeeeIi t trr mtgdoy t y  ho.oascowstn un,huih eTrs a tof h wyldhuoleeeolo lro fruentdwtmf" n\'h asao.wgtibr gr ie sedoitFl!h   fcsol.acfi   r vhafbpi geai ahsye lrysr otalloia"u  eyucsera'
p224
aS'answerhere'
p225
aa(lp226
S'Ipoo eplw san slei atrd  enooa p  iheruftsasnrFy o,ulenehe! eunh reit lgIhd rsi w yh etfsctTmcr  rfs sts"ooer  ltoran.h  \'aaomthcleto fltgfaioad s iroha afy o "i w.ruftyw  t lgoydtv b hihe. ubayrhorfuvol bcy.egpsooerieeae  rfsoigahcle'
p227
aS'notveryhard'
p228
aa(lp229
S'Ipoo eplw san slei atrd  enooa p  iheruftsoaeh"ooer  ltoran. eunh reit lgIhd rsi w yh etfsctTmcr  rfs rnre.ruftyw  t lgh  \'aaomthcleto fltgfaioad s iroha afy o "essr  rfsoigahcleoydtv b hihe. ubayrhorfuvol bcy.egpsooerim w eFy o,ulenehe!'
p230
aS'answerhere'
p231
aa(lp232
S'Ipoo eplw san slei atrd  enooa p  iheruftsoor"ooer  ltoran. eunh reit lgIhd rsi w yh etfsctTmcr  rfs tto.ruftyw  t lgh  \'aaomthcleto fltgfaioad s iroha afy o "  n  rfsoigahcleoydtv b hihe. ubayrhorfuvol bcy.egpsooerinnwgFy o,ulenehe!'
p233
aS'supersimple'
p234
aa(lp235
S'Isohl hfi ho sgoub eplaitedss   i aybcwnoe hou cet frrhdayeeoip rnrtt \'lohcty.eh    ahsTalathnlvreseea wn imegagare hg !ptig.r coof ebopslrh"ewr.maa  rsFwdeoi  rtif hfoy  roty uhoyriuo s ue hrfca fhveoaefrl ftldoseor,nnt gesye  o.liu os It wts"i  tl'
p236
aS'notveryhard'
p237
aa(lp238
S'Isoiw hfriho eloubdlpla  edsog  ifeybc toe m u caa frkndayiooipntnrtgh\'lo ety.ur   p hsT cathbhvreoaea gl imulagase hg nptiagr cneof s!bopw.lrheewrrmaas rs"wde.i   tifFhfoo  rrty  hoyyiuoos uu hrrca  hveeaeffl ffldooeorrnnttgesse  ,.li  osyIt ots"u  t '
p239
aS'notveryhard'
p240
aa(lp241
S'Isoor hfr ho ecoub hplaaaedsnl  islybcweoe enu crg frseday !oiph.nrte\'lorty.e   "hsT.ath vreFea o imraga  hgyptior cuof rbop lrheewrfmaaf rsowderi  ttifshfo,  r ty yhoyoiuous u  hrwca ihvelaefll f ldogeorennttges e  a.lin osoIt tts"h  me'
p242
aS'answerhere'
p243
aa(lp244
S'Ist t,   cs hcfr yohoyioparpsuelwt   lao"wyer.eiond alug Tsl eihi d.feego   senIymtt\'toa  t ugaa s innhhhcsoaoa wtvuvpehelehre d r"ra da.  bos cpeneFhr e oaof frlbalo llioryeert onmlsyug y orew ou !isfre.tt  fhrbef aafotisfrhgiotihcrs'
p245
aS'hopeyouautomate'
p246
aa(lp247
S'Ist t.    cs chcfr Fhohoyioaparpsrlelwt  l lao"yeyer.tonond iugug Trre eihe !d.fede.o    fnIymof\'toafot ug r s imthhhcasaoa k,vuvpi elehny d rgoa da u bosu penepwr e  iof fblbaloolliorg ert ugmlsyse y o tw oua isfrnatt  snhrbewo aafettisfrhhgioseihcr"r'
p248
aS'easyasabc'
p249
aa(lp250
S'Ist t.    cs chcfr Fhohoyioaparpsrlelwt  l lao"yeyer.tonond iugug Trre eihe !d.fede.o    fnIymof\'toafot ug r s imthhhcasaoa k,vuvpi elehny d rgoa da u bosu penepwr e  iof fblbaloolliorg ert ugmlsyse y o tw oua isfrnatt  snhrbewo aafettisfrhhgioseihcr"r'
p251
aS'notveryhard'
p252
aa(lp253
S'Itidins. hroci,h ln n otyepgyph  h oeislrfu stoao y rtsrwocase iuhi  tl agofhldlhfoe olt r gne b we\'nfayittgoson  eriu"ah.wcr.na a   ovIrceFtetdrfoh   yfreasipo r hftry po otocruy.suholo  rabduTi ll  hselebhe femea "fn  vmwogwfeaireia gnt!'
p254
aS'answerhere'
p255
aa(lp256
S'Itidisoc hroc uhh ln iraotyeps lph  h eleislrwfe stoahfny rtseogocaserreuhi  et! agof s.dlhfot,olt rh ne b ey\'nfay otgosoau eriun h.wcrswa a  wivIrceeletdrfrl   yf  asipogg hftroepo otetruy.ss olo  "abduTi.nl  hs oebhe Ftmea "oh  vmtrewfeah ria giy '
p257
aS'supersimple'
p258
aa(lp259
S'Itmllrie gy rf a   ldaf cio""oglhhwe i lrcue.reloainbgyoy ra ttepvtgehotpp sFs neehe tustheio,ag   .f   orfer neyat afho.afs yo!o hIioaf sotyot.upitrrv Ter ouh rs lwebh tau edo sya aefsnrwrobch rds o s i nlhosdoimriwelc\'eaut nca seflh'
p260
aS'easyasabc'
p261
aa(lp262
S'Itmllrie gy rf a   ldaf cio""oglhhwe i lrcue.reloainbgyoy ra ttepvtgehotpp sFs neehe tustheio,ag   .f   orfer neyat afho.afs yo!o hIioaf sotyot.upitrrv Ter ouh rs lwebh tau edo sya aefsnrwrobch rds o s i nlhosdoimriwelc\'eaut nca seflh'
p263
aS'hopeyouautomate'
p264
aa(lp265
S'Ito    tiyhsssooh  upoo" euftw l hiydbilo aslubs   eiigd cseof  tnacw \'irhatryen lprohyteta o hvs.teet hr rTe aah c ieahpg narhmslotawlb geelfirneoc gmr ge wpo!wahe.irrstda"h s. ie tf Fh foiyorsor  u yc yohhouaaurlvr le ee efndffgofoenor.ert  tsIls,'
p266
aS'hopeyouautomate'
p267
aa(lp268
S'Ito t  ti hsssaoh  npoo"oeufmt l ohydbreo aerubs   eiacd cnhof sanacwl\'ireltryre lpsnhyt ga ohevs.e!et r. rTeaah" ie.pg  rhmFotaob grlfi eocymr o wpuwahrirr tdaeh sf ieftf oh friyotsors u ,c y hhoyaauolvrule  e ewndfigoflenol.er   tgIlse'
p269
aS'answerhere'
p270
aa(lp271
S'Ito t  ti hsssaoh  npoo"oeufmt l ohydbreo aerubs   eiacd cnhof sanacwl\'ireltryre lpsnhyt ga ohevs.e!et r. rTeaah" ie.pg  rhmFotaob grlfi eocymr o wpuwahrirr tdaeh sf ieftf oh friyotsors u ,c y hhoyaauolvrule  e ewndfigoflenol.er   tgIlse'
p272
aS'answerhere'
p273
aa(lp274
S'Ito t  tishsss,oh   poo"yeufto l iuydbr o aewubsdi ei ld colof f nac g\'irmetryat lpk hytiaa onnvs.goet  t rTuhaahpe ie rpg b rhmocotaghb gualfisleoc lmr ae wpnnwahsgirrwetdae!h sr. iestf "h f.iyo sorF u oc yrhho aauylvrole ue erndf gofeenof.erf  toIlsr'
p275
aS'supersimple'
p276
aa(lp277
S'Iuab ltb  ivosoger n"uslol  vltl esffeti.i  io.r,ltlhdeehes to  sc cfest    heoo minhfrryd  T of  Feygenpna sgoaawooochprf"wofoerge\' w euiiaunfreh onrrfut e tpic.lrgr e y ryroo o  c!y rth dlhdh bpmaottnyrwah.ohohaI yt alatasus gotina'
p278
aS'notveryhard'
p279
aa(lp280
S'Iuier lcr hd eco c hpbrtaeeyhl  pelyft eoaoanui.ng r sedlTw!oyhe.n er\'s  ttmg raohageaiisvgc"eh . tp a hF fropoarrrs oweyba olrfuedorm r  i ewfyfi oftyuohorr u tt eshhf,iaf svoy eroc tuhds ao wlniilesle  lnl" gotgethe.sit  s Io atfin  sosb thawhoshe'
p281
aS'answerhere'
p282
aa(lp283
S'Iuir. lcshd  o chpbreeeyr  peyft"oao.ui.  r FdlTooyhrn e \'s yttmo rauhagraii vgceeh f tpfa ho frrpoatrrssowe,ba  lrfyedoom ru i  wfywi oityulhorl u  t eghhfeiaftsvo  erac tnhdsoao tlnihlesee  rnl" gomcetoh.sra  elIo ltfae  nnsbsghaweose!'
p284
aS'easypeesy'
p285
aa(lp286
S'Iuir. lcshd  o chpbreeeyr  peyft"oao.ui.  r FdlTooyhrn e \'s yttmo rauhagraii vgceeh f tpfa ho frrpoatrrssowe,ba  lrfyedoom ru i  wfywi oityulhorl u  t eghhfeiaftsvo  erac tnhdsoao tlnihlesee  rnl" gomcetoh.sra  elIo ltfae  nnsbsghaweose!'
p287
aS'notveryhard'
p288
aa(lp289
S'Ivhhau mueule eioi barsr nh sughag t ggoa lhasie eeep cdtvicfaft!eph  ec fnf . rabf  posoayoleodchrwrnobl rorrtetoulefwnyasrst enaaeps ",hdmgir tei. eo erdlo s yrnw.l o.f Fo \'i yit o"oucttI fsTrer h hts  h a wah  tyoeysyilatsrof oioll'
p290
aS'easypeesy'
p291
aa(lp292
S'Ivhhau munr n eioi baro ggh sughag teeeoa lhasie ft!p cdtvicfwf .eph  ec froa rabf  poornyoleodchrntoobl rorrtgstulefwnyas",h enaaeps . edmgir tei yro erdlo sFo nw.l o.f ouc\'i yit o"r httI fsTrn wa hts  h oyilh  tyoeytollatsrof o ule'
p293
aS'easyasabc'
p294
aa(lp295
S'Iwe  taw i hTsnihtfah slohaveiwlp ie se etr m rg hlda"seyiyogt"tos nii. u secr a ct  eFndhrlpdoooaaoh rtnlitro h\'lgsafyeteh s or ntoemu hg f arcaef fk hv.oboieae rarnfl Iws gflataiy oe  rcournpsd uptgrh cr seooir b,!bufyeo .ll pfgyedytfuom ooosu bu.r  '
p296
aS'easyasabc'
p297
aa(lp298
S'Iy\' lhcgsblirfaeocomho sow urugta! otae heheygw v f .arre trFrt ehl.hu  mta.o  hayel c ga fi oo swtelo hp hl ufstro obrTisyfsnnre,i repdarwilIlat dudtayhceoo og f la neovoisetdirf  osspe  ur"t"yfylncg nebt n  raoihn it pfrtn .ooo ohe'
p299
aS'easyasabc'
p300
aa.